target datalayout = "e-m:e-p270:32:32-p271:32:32-p272:64:64-i64:64-i128:128-f80:128-n8:16:32:64-S128"
target triple = "x86_64-pc-linux-gnu"

%struct.unim_index = type { ptr, i8, i8 }

; Function Attrs: inlinehint nounwind uwtable
define internal i32 @PyUnicode_READ(i32 noundef %0, ptr noundef %1, i64 noundef %2) #2 {
  %4 = alloca i32, align 4
  %5 = alloca i32, align 4
  %6 = alloca ptr, align 8
  %7 = alloca i64, align 8
  store i32 %0, ptr %5, align 4, !tbaa !19
  store ptr %1, ptr %6, align 8, !tbaa !3
  store i64 %2, ptr %7, align 8, !tbaa !28
  %8 = load i32, ptr %5, align 4, !tbaa !19
  %9 = icmp eq i32 %8, 1
  br i1 %9, label %10, label %16

10:                                               ; preds = %3
  %11 = load ptr, ptr %6, align 8, !tbaa !3
  %12 = load i64, ptr %7, align 8, !tbaa !28
  %13 = getelementptr i8, ptr %11, i64 %12
  %14 = load i8, ptr %13, align 1, !tbaa !42
  %15 = zext i8 %14 to i32
  store i32 %15, ptr %4, align 4
  br label %30

16:                                               ; preds = %3
  %17 = load i32, ptr %5, align 4, !tbaa !19
  %18 = icmp eq i32 %17, 2
  br i1 %18, label %19, label %25

19:                                               ; preds = %16
  %20 = load ptr, ptr %6, align 8, !tbaa !3
  %21 = load i64, ptr %7, align 8, !tbaa !28
  %22 = getelementptr i16, ptr %20, i64 %21
  %23 = load i16, ptr %22, align 2, !tbaa !76
  %24 = zext i16 %23 to i32
  store i32 %24, ptr %4, align 4
  br label %30

25:                                               ; preds = %16
  %26 = load ptr, ptr %6, align 8, !tbaa !3
  %27 = load i64, ptr %7, align 8, !tbaa !28
  %28 = getelementptr i32, ptr %26, i64 %27
  %29 = load i32, ptr %28, align 4, !tbaa !19
  store i32 %29, ptr %4, align 4
  br label %30

30:                                               ; preds = %25, %19, %10
  %31 = load i32, ptr %4, align 4
  ret i32 %31
}

; Function Attrs: nounwind uwtable
define internal i64 @gbk_encode(ptr noundef %0, ptr noundef %1, i32 noundef %2, ptr noundef %3, ptr noundef %4, i64 noundef %5, ptr noundef %6, i64 noundef %7, i32 noundef %8) #0 {
  %10 = alloca i64, align 8
  %11 = alloca ptr, align 8
  %12 = alloca ptr, align 8
  %13 = alloca i32, align 4
  %14 = alloca ptr, align 8
  %15 = alloca ptr, align 8
  %16 = alloca i64, align 8
  %17 = alloca ptr, align 8
  %18 = alloca i64, align 8
  %19 = alloca i32, align 4
  %20 = alloca i32, align 4
  %21 = alloca i16, align 2
  %22 = alloca i32, align 4
  store ptr %0, ptr %11, align 8, !tbaa !3
  store ptr %1, ptr %12, align 8, !tbaa !21
  store i32 %2, ptr %13, align 4, !tbaa !19
  store ptr %3, ptr %14, align 8, !tbaa !3
  store ptr %4, ptr %15, align 8, !tbaa !66
  store i64 %5, ptr %16, align 8, !tbaa !28
  store ptr %6, ptr %17, align 8, !tbaa !68
  store i64 %7, ptr %18, align 8, !tbaa !28
  store i32 %8, ptr %19, align 4, !tbaa !19
  br label %23

23:                                               ; preds = %214, %212, %9
  %24 = load ptr, ptr %15, align 8, !tbaa !66
  %25 = load i64, ptr %24, align 8, !tbaa !28
  %26 = load i64, ptr %16, align 8, !tbaa !28
  %27 = icmp slt i64 %25, %26
  br i1 %27, label %28, label %215

28:                                               ; preds = %23
  call void @llvm.lifetime.start.p0(i64 4, ptr %20) #9
  %29 = load i32, ptr %13, align 4, !tbaa !19
  %30 = load ptr, ptr %14, align 8, !tbaa !3
  %31 = load ptr, ptr %15, align 8, !tbaa !66
  %32 = load i64, ptr %31, align 8, !tbaa !28
  %33 = call i32 @PyUnicode_READ(i32 noundef %29, ptr noundef %30, i64 noundef %32)
  store i32 %33, ptr %20, align 4, !tbaa !19
  call void @llvm.lifetime.start.p0(i64 2, ptr %21) #9
  %34 = load i32, ptr %20, align 4, !tbaa !19
  %35 = icmp ult i32 %34, 128
  br i1 %35, label %36, label %72

36:                                               ; preds = %28
  br label %37

37:                                               ; preds = %36
  br label %38

38:                                               ; preds = %37
  %39 = load i64, ptr %18, align 8, !tbaa !28
  %40 = icmp slt i64 %39, 1
  br i1 %40, label %41, label %42

41:                                               ; preds = %38
  store i64 -1, ptr %10, align 8
  store i32 1, ptr %22, align 4
  br label %212

42:                                               ; preds = %38
  br label %43

43:                                               ; preds = %42
  br label %44

44:                                               ; preds = %43
  br label %45

45:                                               ; preds = %44
  %46 = load i32, ptr %20, align 4, !tbaa !19
  %47 = trunc i32 %46 to i8
  %48 = load ptr, ptr %17, align 8, !tbaa !68
  %49 = load ptr, ptr %48, align 8, !tbaa !17
  %50 = getelementptr i8, ptr %49, i64 0
  store i8 %47, ptr %50, align 1, !tbaa !42
  br label %51

51:                                               ; preds = %45
  br label %52

52:                                               ; preds = %51
  br label %53

53:                                               ; preds = %52
  br label %54

54:                                               ; preds = %53
  br label %55

55:                                               ; preds = %54
  br label %56

56:                                               ; preds = %55
  %57 = load ptr, ptr %15, align 8, !tbaa !66
  %58 = load i64, ptr %57, align 8, !tbaa !28
  %59 = add i64 %58, 1
  store i64 %59, ptr %57, align 8, !tbaa !28
  br label %60

60:                                               ; preds = %56
  br label %61

61:                                               ; preds = %60
  br label %62

62:                                               ; preds = %61
  %63 = load ptr, ptr %17, align 8, !tbaa !68
  %64 = load ptr, ptr %63, align 8, !tbaa !17
  %65 = getelementptr i8, ptr %64, i64 1
  store ptr %65, ptr %63, align 8, !tbaa !17
  %66 = load i64, ptr %18, align 8, !tbaa !28
  %67 = sub i64 %66, 1
  store i64 %67, ptr %18, align 8, !tbaa !28
  br label %68

68:                                               ; preds = %62
  br label %69

69:                                               ; preds = %68
  br label %70

70:                                               ; preds = %69
  br label %71

71:                                               ; preds = %70
  store i32 2, ptr %22, align 4
  br label %212, !llvm.loop !82

72:                                               ; preds = %28
  %73 = load i32, ptr %20, align 4, !tbaa !19
  %74 = icmp ugt i32 %73, 65535
  br i1 %74, label %75, label %76

75:                                               ; preds = %72
  store i64 1, ptr %10, align 8
  store i32 1, ptr %22, align 4
  br label %212

76:                                               ; preds = %72
  br label %77

77:                                               ; preds = %76
  %78 = load i64, ptr %18, align 8, !tbaa !28
  %79 = icmp slt i64 %78, 2
  br i1 %79, label %80, label %81

80:                                               ; preds = %77
  store i64 -1, ptr %10, align 8
  store i32 1, ptr %22, align 4
  br label %212

81:                                               ; preds = %77
  br label %82

82:                                               ; preds = %81
  br label %83

83:                                               ; preds = %82
  %84 = load i32, ptr %20, align 4, !tbaa !19
  %85 = icmp eq i32 %84, 8212
  br i1 %85, label %86, label %87

86:                                               ; preds = %83
  store i16 -24150, ptr %21, align 2, !tbaa !76
  br label %155

87:                                               ; preds = %83
  %88 = load i32, ptr %20, align 4, !tbaa !19
  %89 = icmp eq i32 %88, 8213
  br i1 %89, label %90, label %91

90:                                               ; preds = %87
  store i16 -22460, ptr %21, align 2, !tbaa !76
  br label %154

91:                                               ; preds = %87
  %92 = load i32, ptr %20, align 4, !tbaa !19
  %93 = icmp eq i32 %92, 183
  br i1 %93, label %94, label %95

94:                                               ; preds = %91
  store i16 -24156, ptr %21, align 2, !tbaa !76
  br label %153

95:                                               ; preds = %91
  %96 = load i32, ptr %20, align 4, !tbaa !19
  %97 = icmp ne i32 %96, 12539
  br i1 %97, label %98, label %151

98:                                               ; preds = %95
  %99 = load i32, ptr %20, align 4, !tbaa !19
  %100 = lshr i32 %99, 8
  %101 = zext i32 %100 to i64
  %102 = getelementptr [256 x %struct.unim_index], ptr @gbcommon_encmap, i64 0, i64 %101
  %103 = getelementptr inbounds nuw %struct.unim_index, ptr %102, i32 0, i32 0
  %104 = load ptr, ptr %103, align 16, !tbaa !71
  %105 = icmp ne ptr %104, null
  br i1 %105, label %106, label %151

106:                                              ; preds = %98
  %107 = load i32, ptr %20, align 4, !tbaa !19
  %108 = and i32 %107, 255
  %109 = load i32, ptr %20, align 4, !tbaa !19
  %110 = lshr i32 %109, 8
  %111 = zext i32 %110 to i64
  %112 = getelementptr [256 x %struct.unim_index], ptr @gbcommon_encmap, i64 0, i64 %111
  %113 = getelementptr inbounds nuw %struct.unim_index, ptr %112, i32 0, i32 1
  %114 = load i8, ptr %113, align 8, !tbaa !74
  %115 = zext i8 %114 to i32
  %116 = icmp uge i32 %108, %115
  br i1 %116, label %117, label %151

117:                                              ; preds = %106
  %118 = load i32, ptr %20, align 4, !tbaa !19
  %119 = and i32 %118, 255
  %120 = load i32, ptr %20, align 4, !tbaa !19
  %121 = lshr i32 %120, 8
  %122 = zext i32 %121 to i64
  %123 = getelementptr [256 x %struct.unim_index], ptr @gbcommon_encmap, i64 0, i64 %122
  %124 = getelementptr inbounds nuw %struct.unim_index, ptr %123, i32 0, i32 2
  %125 = load i8, ptr %124, align 1, !tbaa !75
  %126 = zext i8 %125 to i32
  %127 = icmp ule i32 %119, %126
  br i1 %127, label %128, label %151

128:                                              ; preds = %117
  %129 = load i32, ptr %20, align 4, !tbaa !19
  %130 = lshr i32 %129, 8
  %131 = zext i32 %130 to i64
  %132 = getelementptr [256 x %struct.unim_index], ptr @gbcommon_encmap, i64 0, i64 %131
  %133 = getelementptr inbounds nuw %struct.unim_index, ptr %132, i32 0, i32 0
  %134 = load ptr, ptr %133, align 16, !tbaa !71
  %135 = load i32, ptr %20, align 4, !tbaa !19
  %136 = and i32 %135, 255
  %137 = load i32, ptr %20, align 4, !tbaa !19
  %138 = lshr i32 %137, 8
  %139 = zext i32 %138 to i64
  %140 = getelementptr [256 x %struct.unim_index], ptr @gbcommon_encmap, i64 0, i64 %139
  %141 = getelementptr inbounds nuw %struct.unim_index, ptr %140, i32 0, i32 1
  %142 = load i8, ptr %141, align 8, !tbaa !74
  %143 = zext i8 %142 to i32
  %144 = sub i32 %136, %143
  %145 = zext i32 %144 to i64
  %146 = getelementptr i16, ptr %134, i64 %145
  %147 = load i16, ptr %146, align 2, !tbaa !76
  store i16 %147, ptr %21, align 2, !tbaa !76
  %148 = zext i16 %147 to i32
  %149 = icmp ne i32 %148, 65535
  br i1 %149, label %150, label %151

150:                                              ; preds = %128
  br label %152

151:                                              ; preds = %128, %117, %106, %98, %95
  store i64 1, ptr %10, align 8
  store i32 1, ptr %22, align 4
  br label %212

152:                                              ; preds = %150
  br label %153

153:                                              ; preds = %152, %94
  br label %154

154:                                              ; preds = %153, %90
  br label %155

155:                                              ; preds = %154, %86
  br label %156

156:                                              ; preds = %155
  %157 = load i16, ptr %21, align 2, !tbaa !76
  %158 = zext i16 %157 to i32
  %159 = ashr i32 %158, 8
  %160 = or i32 %159, 128
  %161 = trunc i32 %160 to i8
  %162 = load ptr, ptr %17, align 8, !tbaa !68
  %163 = load ptr, ptr %162, align 8, !tbaa !17
  %164 = getelementptr i8, ptr %163, i64 0
  store i8 %161, ptr %164, align 1, !tbaa !42
  br label %165

165:                                              ; preds = %156
  br label %166

166:                                              ; preds = %165
  %167 = load i16, ptr %21, align 2, !tbaa !76
  %168 = zext i16 %167 to i32
  %169 = and i32 %168, 32768
  %170 = icmp ne i32 %169, 0
  br i1 %170, label %171, label %182

171:                                              ; preds = %166
  br label %172

172:                                              ; preds = %171
  %173 = load i16, ptr %21, align 2, !tbaa !76
  %174 = zext i16 %173 to i32
  %175 = and i32 %174, 255
  %176 = trunc i32 %175 to i8
  %177 = load ptr, ptr %17, align 8, !tbaa !68
  %178 = load ptr, ptr %177, align 8, !tbaa !17
  %179 = getelementptr i8, ptr %178, i64 1
  store i8 %176, ptr %179, align 1, !tbaa !42
  br label %180

180:                                              ; preds = %172
  br label %181

181:                                              ; preds = %180
  br label %194

182:                                              ; preds = %166
  br label %183

183:                                              ; preds = %182
  %184 = load i16, ptr %21, align 2, !tbaa !76
  %185 = zext i16 %184 to i32
  %186 = and i32 %185, 255
  %187 = or i32 %186, 128
  %188 = trunc i32 %187 to i8
  %189 = load ptr, ptr %17, align 8, !tbaa !68
  %190 = load ptr, ptr %189, align 8, !tbaa !17
  %191 = getelementptr i8, ptr %190, i64 1
  store i8 %188, ptr %191, align 1, !tbaa !42
  br label %192

192:                                              ; preds = %183
  br label %193

193:                                              ; preds = %192
  br label %194

194:                                              ; preds = %193, %181
  br label %195

195:                                              ; preds = %194
  br label %196

196:                                              ; preds = %195
  %197 = load ptr, ptr %15, align 8, !tbaa !66
  %198 = load i64, ptr %197, align 8, !tbaa !28
  %199 = add i64 %198, 1
  store i64 %199, ptr %197, align 8, !tbaa !28
  br label %200

200:                                              ; preds = %196
  br label %201

201:                                              ; preds = %200
  br label %202

202:                                              ; preds = %201
  %203 = load ptr, ptr %17, align 8, !tbaa !68
  %204 = load ptr, ptr %203, align 8, !tbaa !17
  %205 = getelementptr i8, ptr %204, i64 2
  store ptr %205, ptr %203, align 8, !tbaa !17
  %206 = load i64, ptr %18, align 8, !tbaa !28
  %207 = sub i64 %206, 2
  store i64 %207, ptr %18, align 8, !tbaa !28
  br label %208

208:                                              ; preds = %202
  br label %209

209:                                              ; preds = %208
  br label %210

210:                                              ; preds = %209
  br label %211

211:                                              ; preds = %210
  store i32 0, ptr %22, align 4
  br label %212

212:                                              ; preds = %211, %151, %80, %75, %71, %41
  call void @llvm.lifetime.end.p0(i64 2, ptr %21) #9
  call void @llvm.lifetime.end.p0(i64 4, ptr %20) #9
  %213 = load i32, ptr %22, align 4
  switch i32 %213, label %218 [
    i32 0, label %214
    i32 1, label %216
    i32 2, label %23
  ]

214:                                              ; preds = %212
  br label %23, !llvm.loop !82

215:                                              ; preds = %23
  store i64 0, ptr %10, align 8
  br label %216

216:                                              ; preds = %215, %212
  %217 = load i64, ptr %10, align 8
  ret i64 %217

218:                                              ; preds = %212
  unreachable
}