; Function Attrs: nofree norecurse nosync nounwind memory(readwrite, inaccessiblemem: none) uwtable
define internal range(i64 -1, 2) i64 @gbk_encode(ptr readnone captures(none) %0, ptr readnone captures(none) %1, i32 noundef %2, ptr noundef readonly captures(none) %3, ptr noundef captures(none) %4, i64 noundef %5, ptr noundef captures(none) %6, i64 noundef %7, i32 %8) #6 {
  %10 = load i64, ptr %4, align 8, !tbaa !49
  %11 = icmp slt i64 %10, %5
  br i1 %11, label %.lr.ph, label %.thread56

.lr.ph:                                           ; preds = %9, %72
  %12 = phi i64 [ %74, %72 ], [ %10, %9 ]
  %.03962 = phi i64 [ %77, %72 ], [ %7, %9 ]
  switch i32 %2, label %21 [
    i32 1, label %13
    i32 2, label %17
  ]

13:                                               ; preds = %.lr.ph
  %14 = getelementptr i8, ptr %3, i64 %12
  %15 = load i8, ptr %14, align 1, !tbaa !34
  %16 = zext i8 %15 to i32
  br label %PyUnicode_READ.exit

17:                                               ; preds = %.lr.ph
  %18 = getelementptr i16, ptr %3, i64 %12
  %19 = load i16, ptr %18, align 2, !tbaa !50
  %20 = zext i16 %19 to i32
  br label %PyUnicode_READ.exit

21:                                               ; preds = %.lr.ph
  %22 = getelementptr i32, ptr %3, i64 %12
  %23 = load i32, ptr %22, align 4, !tbaa !51
  br label %PyUnicode_READ.exit

PyUnicode_READ.exit:                              ; preds = %13, %17, %21
  %.0.i = phi i32 [ %16, %13 ], [ %20, %17 ], [ %23, %21 ]
  %24 = icmp ult i32 %.0.i, 128
  br i1 %24, label %25, label %30

25:                                               ; preds = %PyUnicode_READ.exit
  %26 = icmp slt i64 %.03962, 1
  br i1 %26, label %.thread56, label %27

27:                                               ; preds = %25
  %28 = trunc nuw nsw i32 %.0.i to i8
  %29 = load ptr, ptr %6, align 8, !tbaa !37
  store i8 %28, ptr %29, align 1, !tbaa !34
  br label %72, !llvm.loop !63

30:                                               ; preds = %PyUnicode_READ.exit
  %31 = icmp ugt i32 %.0.i, 65535
  br i1 %31, label %.thread56, label %32

32:                                               ; preds = %30
  %33 = icmp slt i64 %.03962, 2
  br i1 %33, label %.thread56, label %34

34:                                               ; preds = %32
  %trunc = trunc nuw i32 %.0.i to i16
  switch i16 %trunc, label %37 [
    i16 8212, label %.thread
    i16 8213, label %35
    i16 183, label %36
    i16 12539, label %.thread56
  ]

35:                                               ; preds = %34
  br label %.thread

36:                                               ; preds = %34
  br label %.thread

37:                                               ; preds = %34
  %38 = lshr i32 %.0.i, 8
  %39 = zext nneg i32 %38 to i64
  %40 = getelementptr [256 x %struct.unim_index], ptr @gbcommon_encmap, i64 0, i64 %39
  %41 = load ptr, ptr %40, align 16, !tbaa !53
  %.not47 = icmp eq ptr %41, null
  br i1 %.not47, label %.thread56, label %42

42:                                               ; preds = %37
  %43 = and i32 %.0.i, 255
  %44 = getelementptr inbounds nuw i8, ptr %40, i64 8
  %45 = load i8, ptr %44, align 8, !tbaa !56
  %46 = zext i8 %45 to i32
  %.not48 = icmp samesign ult i32 %43, %46
  br i1 %.not48, label %.thread56, label %47

47:                                               ; preds = %42
  %48 = getelementptr inbounds nuw i8, ptr %40, i64 9
  %49 = load i8, ptr %48, align 1, !tbaa !57
  %50 = zext i8 %49 to i32
  %.not49 = icmp samesign ugt i32 %43, %50
  br i1 %.not49, label %.thread56, label %51

51:                                               ; preds = %47
  %52 = sub nsw i32 %43, %46
  %53 = zext i32 %52 to i64
  %54 = getelementptr i16, ptr %41, i64 %53
  %55 = load i16, ptr %54, align 2, !tbaa !50
  %.not50 = icmp eq i16 %55, -1
  br i1 %.not50, label %.thread56, label %59

.thread:                                          ; preds = %35, %36, %34
  %.037.ph = phi i16 [ -24150, %34 ], [ -24156, %36 ], [ -22460, %35 ]
  %56 = lshr i16 %.037.ph, 8
  %57 = trunc nuw i16 %56 to i8
  %58 = load ptr, ptr %6, align 8, !tbaa !37
  store i8 %57, ptr %58, align 1, !tbaa !34
  br label %64

59:                                               ; preds = %51
  %60 = lshr i16 %55, 8
  %61 = trunc nuw i16 %60 to i8
  %62 = or i8 %61, -128
  %63 = load ptr, ptr %6, align 8, !tbaa !37
  store i8 %62, ptr %63, align 1, !tbaa !34
  %.not51 = icmp sgt i16 %55, -1
  br i1 %.not51, label %66, label %64

64:                                               ; preds = %.thread, %59
  %.03754 = phi i16 [ %.037.ph, %.thread ], [ %55, %59 ]
  %65 = trunc i16 %.03754 to i8
  br label %69

66:                                               ; preds = %59
  %67 = trunc i16 %55 to i8
  %68 = or i8 %67, -128
  br label %69

69:                                               ; preds = %66, %64
  %.sink = phi i8 [ %68, %66 ], [ %65, %64 ]
  %70 = load ptr, ptr %6, align 8, !tbaa !37
  %71 = getelementptr i8, ptr %70, i64 1
  store i8 %.sink, ptr %71, align 1, !tbaa !34
  br label %72

72:                                               ; preds = %69, %27
  %.sink84 = phi i64 [ 2, %69 ], [ 1, %27 ]
  %.sink81 = phi i64 [ -2, %69 ], [ -1, %27 ]
  %73 = load i64, ptr %4, align 8, !tbaa !49
  %74 = add i64 %73, 1
  store i64 %74, ptr %4, align 8, !tbaa !49
  %75 = load ptr, ptr %6, align 8, !tbaa !37
  %76 = getelementptr i8, ptr %75, i64 %.sink84
  store ptr %76, ptr %6, align 8, !tbaa !37
  %77 = add nsw i64 %.03962, %.sink81
  %78 = icmp slt i64 %74, %5
  br i1 %78, label %.lr.ph, label %.thread56

.thread56:                                        ; preds = %72, %25, %30, %32, %34, %51, %47, %42, %37, %9
  %.2 = phi i64 [ 0, %9 ], [ 1, %37 ], [ 1, %42 ], [ 1, %47 ], [ 1, %51 ], [ 1, %34 ], [ -1, %32 ], [ 1, %30 ], [ -1, %25 ], [ 0, %72 ]
  ret i64 %.2
}